#include <math.h>
#include <stdio.h>
#include <stdlib.h>
#include <string.h>

int main()
{
  int i,j,n,k,l=0,s[1000],h[1000][1000];
  scanf("%d %d",&n,&k);
  for(i=0;i<n;i++)
  {
    scanf("%d",&s[i]);
  }
  for(i=0;i<n;i++)
  {
    for(j=0;j<n;j++)
    {
      h[i][j]=s[i]+s[j];
    }
  }
  for(i=0;i<n;i++)
  {
    for(j=0;j<n;j++)
    {
      if(h[i][j]==k)
      {
        l=l+1;
      }
    }
  }
  if(l>0)
  {
    printf("yes");
  }
  else
  {
    printf("no");
  }
  return 0;
} 
       